; Function Attrs: mustprogress uwtable
define void @_ZN6icu_779UVector646assignERKS0_R10UErrorCode(ptr noundef nonnull align 8 captures(none) dereferenceable(32) %0, ptr noundef nonnull readonly align 8 captures(none) dereferenceable(32) %1, ptr noundef nonnull align 4 captures(none) dereferenceable(4) %2) local_unnamed_addr #1 align 2 {
  %4 = getelementptr inbounds nuw i8, ptr %1, i64 8
  %5 = load i32, ptr %4, align 8, !tbaa !6
  %6 = icmp slt i32 %5, 0
  %7 = getelementptr inbounds nuw i8, ptr %0, i64 12
  %8 = load i32, ptr %7, align 4
  %.not.i = icmp slt i32 %8, %5
  %or.cond.i = select i1 %6, i1 true, i1 %.not.i
  br i1 %or.cond.i, label %9, label %_ZN6icu_779UVector6414ensureCapacityEiR10UErrorCode.exit.thread14

9:                                                ; preds = %3
  %10 = load i32, ptr %2, align 4, !tbaa !16
  %11 = icmp slt i32 %10, 1
  br i1 %11, label %12, label %_ZN6icu_779UVector6414ensureCapacityEiR10UErrorCode.exit.thread

12:                                               ; preds = %9
  br i1 %6, label %_ZN6icu_779UVector6414ensureCapacityEiR10UErrorCode.exit.thread.sink.split, label %13

13:                                               ; preds = %12
  br i1 %.not.i, label %14, label %_ZN6icu_779UVector6414ensureCapacityEiR10UErrorCode.exit.thread14

14:                                               ; preds = %13
  %15 = getelementptr inbounds nuw i8, ptr %0, i64 16
  %16 = load i32, ptr %15, align 8, !tbaa !14
  %17 = icmp sgt i32 %16, 0
  %18 = icmp sgt i32 %5, %16
  %or.cond.i.i = and i1 %17, %18
  br i1 %or.cond.i.i, label %_ZN6icu_779UVector6414ensureCapacityEiR10UErrorCode.exit.thread.sink.split, label %19

19:                                               ; preds = %14
  %20 = icmp sgt i32 %8, 1073741823
  br i1 %20, label %_ZN6icu_779UVector6414ensureCapacityEiR10UErrorCode.exit.thread.sink.split, label %21

21:                                               ; preds = %19
  %22 = shl nsw i32 %8, 1
  %spec.select.i.i = tail call i32 @llvm.smax.i32(i32 %22, i32 %5)
  %23 = tail call i32 @llvm.smin.i32(i32 %spec.select.i.i, i32 %16)
  %.120.i.i = select i1 %17, i32 %23, i32 %spec.select.i.i
  %24 = icmp sgt i32 %.120.i.i, 268435455
  br i1 %24, label %_ZN6icu_779UVector6414ensureCapacityEiR10UErrorCode.exit.thread.sink.split, label %25

25:                                               ; preds = %21
  %26 = getelementptr inbounds nuw i8, ptr %0, i64 24
  %27 = load ptr, ptr %26, align 8, !tbaa !15
  %28 = zext nneg i32 %.120.i.i to i64
  %29 = shl nuw nsw i64 %28, 3
  %30 = tail call ptr @uprv_realloc_77(ptr noundef %27, i64 noundef %29) #17
  %31 = icmp eq ptr %30, null
  br i1 %31, label %_ZN6icu_779UVector6414ensureCapacityEiR10UErrorCode.exit.thread.sink.split, label %_ZN6icu_779UVector6414ensureCapacityEiR10UErrorCode.exit

_ZN6icu_779UVector6414ensureCapacityEiR10UErrorCode.exit: ; preds = %25
  store ptr %30, ptr %26, align 8, !tbaa !15
  store i32 %.120.i.i, ptr %7, align 4, !tbaa !13
  %.pre = load i32, ptr %4, align 8, !tbaa !6
  %32 = icmp slt i32 %.pre, 0
  br i1 %32, label %_ZN6icu_779UVector6414ensureCapacityEiR10UErrorCode.exit.thread, label %_ZN6icu_779UVector6414ensureCapacityEiR10UErrorCode.exit.thread14

_ZN6icu_779UVector6414ensureCapacityEiR10UErrorCode.exit.thread14: ; preds = %3, %13, %_ZN6icu_779UVector6414ensureCapacityEiR10UErrorCode.exit
  %33 = phi i32 [ %.pre, %_ZN6icu_779UVector6414ensureCapacityEiR10UErrorCode.exit ], [ %5, %13 ], [ %5, %3 ]
  %34 = phi i32 [ %.120.i.i, %_ZN6icu_779UVector6414ensureCapacityEiR10UErrorCode.exit ], [ %8, %13 ], [ %8, %3 ]
  %35 = getelementptr inbounds nuw i8, ptr %0, i64 8
  %36 = load i32, ptr %35, align 8, !tbaa !6
  %37 = icmp sgt i32 %33, %36
  br i1 %37, label %38, label %.loopexit.i

38:                                               ; preds = %_ZN6icu_779UVector6414ensureCapacityEiR10UErrorCode.exit.thread14
  %.not.i.i = icmp slt i32 %34, %33
  br i1 %.not.i.i, label %39, label %_ZN6icu_779UVector6414ensureCapacityEiR10UErrorCode.exit.i

39:                                               ; preds = %38
  %40 = getelementptr inbounds nuw i8, ptr %0, i64 16
  %41 = load i32, ptr %40, align 8, !tbaa !14
  %42 = icmp sgt i32 %41, 0
  %43 = icmp sgt i32 %33, %41
  %or.cond.i.i.i = and i1 %42, %43
  %44 = icmp sgt i32 %34, 1073741823
  %or.cond.i9 = or i1 %44, %or.cond.i.i.i
  br i1 %or.cond.i9, label %_ZN6icu_779UVector647setSizeEi.exit, label %45

45:                                               ; preds = %39
  %46 = shl nsw i32 %34, 1
  %spec.select.i.i.i = tail call i32 @llvm.smax.i32(i32 %46, i32 %33)
  %47 = tail call i32 @llvm.smin.i32(i32 %spec.select.i.i.i, i32 %41)
  %.120.i.i.i = select i1 %42, i32 %47, i32 %spec.select.i.i.i
  %48 = icmp sgt i32 %.120.i.i.i, 268435455
  br i1 %48, label %_ZN6icu_779UVector647setSizeEi.exit, label %49

49:                                               ; preds = %45
  %50 = getelementptr inbounds nuw i8, ptr %0, i64 24
  %51 = load ptr, ptr %50, align 8, !tbaa !15
  %52 = zext nneg i32 %.120.i.i.i to i64
  %53 = shl nuw nsw i64 %52, 3
  %54 = tail call ptr @uprv_realloc_77(ptr noundef %51, i64 noundef %53) #17
  %55 = icmp eq ptr %54, null
  br i1 %55, label %_ZN6icu_779UVector647setSizeEi.exit, label %56

56:                                               ; preds = %49
  store ptr %54, ptr %50, align 8, !tbaa !15
  store i32 %.120.i.i.i, ptr %7, align 4, !tbaa !13
  %.pre.i = load i32, ptr %35, align 8, !tbaa !6
  br label %_ZN6icu_779UVector6414ensureCapacityEiR10UErrorCode.exit.i

_ZN6icu_779UVector6414ensureCapacityEiR10UErrorCode.exit.i: ; preds = %56, %38
  %57 = phi i32 [ %.pre.i, %56 ], [ %36, %38 ]
  %58 = icmp slt i32 %57, %33
  br i1 %58, label %.lr.ph.i, label %.loopexit.i

.lr.ph.i:                                         ; preds = %_ZN6icu_779UVector6414ensureCapacityEiR10UErrorCode.exit.i
  %59 = getelementptr inbounds nuw i8, ptr %0, i64 24
  %60 = load ptr, ptr %59, align 8, !tbaa !15
  %61 = sext i32 %57 to i64
  %62 = shl nsw i64 %61, 3
  %scevgep.i = getelementptr i8, ptr %60, i64 %62
  %63 = xor i32 %57, -1
  %64 = add i32 %33, %63
  %65 = zext i32 %64 to i64
  %66 = shl nuw nsw i64 %65, 3
  %67 = add nuw nsw i64 %66, 8
  tail call void @llvm.memset.p0.i64(ptr noundef nonnull align 8 dereferenceable(1) %scevgep.i, i8 0, i64 %67, i1 false), !tbaa !18
  br label %.loopexit.i

.loopexit.i:                                      ; preds = %.lr.ph.i, %_ZN6icu_779UVector6414ensureCapacityEiR10UErrorCode.exit.i, %_ZN6icu_779UVector6414ensureCapacityEiR10UErrorCode.exit.thread14
  store i32 %33, ptr %35, align 8, !tbaa !6
  br label %_ZN6icu_779UVector647setSizeEi.exit

_ZN6icu_779UVector647setSizeEi.exit:              ; preds = %39, %45, %49, %.loopexit.i
  %.pr = load i32, ptr %4, align 8, !tbaa !6
  %68 = icmp sgt i32 %.pr, 0
  br i1 %68, label %.lr.ph, label %_ZN6icu_779UVector6414ensureCapacityEiR10UErrorCode.exit.thread

.lr.ph:                                           ; preds = %_ZN6icu_779UVector647setSizeEi.exit
  %69 = getelementptr inbounds nuw i8, ptr %1, i64 24
  %70 = load ptr, ptr %69, align 8, !tbaa !15
  %71 = getelementptr inbounds nuw i8, ptr %0, i64 24
  %72 = load ptr, ptr %71, align 8, !tbaa !15
  %wide.trip.count = zext nneg i32 %.pr to i64
  br label %73

73:                                               ; preds = %.lr.ph, %73
  %indvars.iv = phi i64 [ 0, %.lr.ph ], [ %indvars.iv.next, %73 ]
  %74 = getelementptr inbounds nuw i64, ptr %70, i64 %indvars.iv
  %75 = load i64, ptr %74, align 8, !tbaa !18
  %76 = getelementptr inbounds nuw i64, ptr %72, i64 %indvars.iv
  store i64 %75, ptr %76, align 8, !tbaa !18
  %indvars.iv.next = add nuw nsw i64 %indvars.iv, 1
  %exitcond.not = icmp eq i64 %indvars.iv.next, %wide.trip.count
  br i1 %exitcond.not, label %_ZN6icu_779UVector6414ensureCapacityEiR10UErrorCode.exit.thread, label %73, !llvm.loop !20

_ZN6icu_779UVector6414ensureCapacityEiR10UErrorCode.exit.thread.sink.split: ; preds = %25, %21, %19, %14, %12
  %.sink = phi i32 [ 1, %12 ], [ 15, %14 ], [ 1, %19 ], [ 1, %21 ], [ 7, %25 ]
  store i32 %.sink, ptr %2, align 4, !tbaa !16
  br label %_ZN6icu_779UVector6414ensureCapacityEiR10UErrorCode.exit.thread

_ZN6icu_779UVector6414ensureCapacityEiR10UErrorCode.exit.thread: ; preds = %73, %_ZN6icu_779UVector6414ensureCapacityEiR10UErrorCode.exit.thread.sink.split, %_ZN6icu_779UVector6414ensureCapacityEiR10UErrorCode.exit, %_ZN6icu_779UVector647setSizeEi.exit, %9
  ret void
}